target datalayout = "e-m:e-p270:32:32-p271:32:32-p272:64:64-i64:64-i128:128-f80:128-n8:16:32:64-S128"
target triple = "x86_64-pc-linux-gnu"

%struct.ident_t = type { i32, i32, i32, i32, ptr }

@1 = private unnamed_addr constant %struct.ident_t { i32 0, i32 514, i32 0, i32 22, ptr @0 }, align 8
@.gomp_critical_user_.reduction.var = common global [8 x i32] zeroinitializer, align 8
@3 = private unnamed_addr constant %struct.ident_t { i32 0, i32 18, i32 0, i32 22, ptr @0 }, align 8

; Function Attrs: norecurse nounwind uwtable
define internal void @_ZN12SparseMatrixIfE7SolveCGIfEEiRKS0_PKT_iPS4_S4_ibbi.omp_outlined.102(ptr noalias noundef %0, ptr noalias noundef %1, ptr noundef nonnull align 4 dereferenceable(4) %2, ptr noundef nonnull align 8 dereferenceable(8) %3, ptr noundef nonnull align 8 dereferenceable(8) %4, ptr noundef nonnull align 8 dereferenceable(8) %5, ptr noundef nonnull align 8 dereferenceable(8) %6, ptr noundef nonnull align 8 dereferenceable(8) %7, ptr noundef nonnull align 4 dereferenceable(4) %8) #17 {
  %10 = alloca ptr, align 8
  %11 = alloca ptr, align 8
  %12 = alloca ptr, align 8
  %13 = alloca ptr, align 8
  %14 = alloca ptr, align 8
  %15 = alloca ptr, align 8
  %16 = alloca ptr, align 8
  %17 = alloca ptr, align 8
  %18 = alloca ptr, align 8
  %19 = alloca i32, align 4
  %20 = alloca i32, align 4
  %21 = alloca i32, align 4
  %22 = alloca i32, align 4
  %23 = alloca i32, align 4
  %24 = alloca i32, align 4
  %25 = alloca i32, align 4
  %26 = alloca i32, align 4
  %27 = alloca double, align 8
  %28 = alloca i32, align 4
  %29 = alloca [1 x ptr], align 8
  store ptr %0, ptr %10, align 8
  store ptr %1, ptr %11, align 8
  store ptr %2, ptr %12, align 8
  store ptr %3, ptr %13, align 8
  store ptr %4, ptr %14, align 8
  store ptr %5, ptr %15, align 8
  store ptr %6, ptr %16, align 8
  store ptr %7, ptr %17, align 8
  store ptr %8, ptr %18, align 8
  %30 = load ptr, ptr %12, align 8
  %31 = load ptr, ptr %13, align 8
  %32 = load ptr, ptr %14, align 8
  %33 = load ptr, ptr %15, align 8
  %34 = load ptr, ptr %16, align 8
  %35 = load ptr, ptr %17, align 8
  %36 = load ptr, ptr %18, align 8
  %37 = load i32, ptr %30, align 4
  store i32 %37, ptr %20, align 4
  %38 = load i32, ptr %20, align 4
  %39 = sub nsw i32 %38, 0
  %40 = sdiv i32 %39, 1
  %41 = sub nsw i32 %40, 1
  store i32 %41, ptr %21, align 4
  store i32 0, ptr %22, align 4
  %42 = load i32, ptr %20, align 4
  %43 = icmp slt i32 0, %42
  br i1 %43, label %44, label %127

44:                                               ; preds = %9
  store i32 0, ptr %23, align 4
  %45 = load i32, ptr %21, align 4
  store i32 %45, ptr %24, align 4
  store i32 1, ptr %25, align 4
  store i32 0, ptr %26, align 4
  store double 0.000000e+00, ptr %27, align 8
  %46 = load ptr, ptr %10, align 8
  %47 = load i32, ptr %46, align 4
  call void @__kmpc_for_static_init_4(ptr @1, i32 %47, i32 34, ptr %26, ptr %23, ptr %24, ptr %25, i32 1, i32 1)
  %48 = load i32, ptr %24, align 4
  %49 = load i32, ptr %21, align 4
  %50 = icmp sgt i32 %48, %49
  br i1 %50, label %51, label %53

51:                                               ; preds = %44
  %52 = load i32, ptr %21, align 4
  br label %55

53:                                               ; preds = %44
  %54 = load i32, ptr %24, align 4
  br label %55

55:                                               ; preds = %53, %51
  %56 = phi i32 [ %52, %51 ], [ %54, %53 ]
  store i32 %56, ptr %24, align 4
  %57 = load i32, ptr %23, align 4
  store i32 %57, ptr %19, align 4
  br label %58

58:                                               ; preds = %108, %55
  %59 = load i32, ptr %19, align 4
  %60 = load i32, ptr %24, align 4
  %61 = icmp sle i32 %59, %60
  br i1 %61, label %62, label %111

62:                                               ; preds = %58
  %63 = load i32, ptr %19, align 4
  %64 = mul nsw i32 %63, 1
  %65 = add nsw i32 0, %64
  store i32 %65, ptr %28, align 4
  %66 = load ptr, ptr %32, align 8
  %67 = load i32, ptr %28, align 4
  %68 = sext i32 %67 to i64
  %69 = getelementptr inbounds float, ptr %66, i64 %68
  %70 = load float, ptr %69, align 4
  %71 = load ptr, ptr %31, align 8
  %72 = load i32, ptr %28, align 4
  %73 = sext i32 %72 to i64
  %74 = getelementptr inbounds float, ptr %71, i64 %73
  %75 = load float, ptr %74, align 4
  %76 = fsub float %70, %75
  %77 = load ptr, ptr %31, align 8
  %78 = load i32, ptr %28, align 4
  %79 = sext i32 %78 to i64
  %80 = getelementptr inbounds float, ptr %77, i64 %79
  store float %76, ptr %80, align 4
  %81 = load ptr, ptr %31, align 8
  %82 = load i32, ptr %28, align 4
  %83 = sext i32 %82 to i64
  %84 = getelementptr inbounds float, ptr %81, i64 %83
  %85 = load float, ptr %84, align 4
  %86 = load ptr, ptr %31, align 8
  %87 = load i32, ptr %28, align 4
  %88 = sext i32 %87 to i64
  %89 = getelementptr inbounds float, ptr %86, i64 %88
  %90 = load float, ptr %89, align 4
  %91 = fmul float %85, %90
  %92 = fpext float %91 to double
  %93 = load double, ptr %27, align 8
  %94 = fadd double %93, %92
  store double %94, ptr %27, align 8
  %95 = load ptr, ptr %35, align 8
  %96 = load i32, ptr %28, align 4
  %97 = sext i32 %96 to i64
  %98 = getelementptr inbounds float, ptr %95, i64 %97
  %99 = load float, ptr %98, align 4
  %100 = load float, ptr %36, align 4
  %101 = load ptr, ptr %34, align 8
  %102 = load i32, ptr %28, align 4
  %103 = sext i32 %102 to i64
  %104 = getelementptr inbounds float, ptr %101, i64 %103
  %105 = load float, ptr %104, align 4
  %106 = call float @llvm.fmuladd.f32(float %99, float %100, float %105)
  store float %106, ptr %104, align 4
  br label %107

107:                                              ; preds = %62
  br label %108

108:                                              ; preds = %107
  %109 = load i32, ptr %19, align 4
  %110 = add nsw i32 %109, 1
  store i32 %110, ptr %19, align 4
  br label %58

111:                                              ; preds = %58
  br label %112

112:                                              ; preds = %111
  %113 = load ptr, ptr %10, align 8
  %114 = load i32, ptr %113, align 4
  call void @__kmpc_for_static_fini(ptr @1, i32 %114)
  %115 = getelementptr inbounds [1 x ptr], ptr %29, i64 0, i64 0
  store ptr %27, ptr %115, align 8
  %116 = load ptr, ptr %10, align 8
  %117 = load i32, ptr %116, align 4
  %118 = call i32 @__kmpc_reduce_nowait(ptr @3, i32 %117, i32 1, i64 8, ptr %29, ptr @_ZN12SparseMatrixIfE7SolveCGIfEEiRKS0_PKT_iPS4_S4_ibbi.omp_outlined.102.omp.reduction.reduction_func, ptr @.gomp_critical_user_.reduction.var)
  switch i32 %118, label %126 [
    i32 1, label %119
    i32 2, label %123
  ]

119:                                              ; preds = %112
  %120 = load double, ptr %33, align 8
  %121 = load double, ptr %27, align 8
  %122 = fadd double %120, %121
  store double %122, ptr %33, align 8
  call void @__kmpc_end_reduce_nowait(ptr @3, i32 %117, ptr @.gomp_critical_user_.reduction.var)
  br label %126

123:                                              ; preds = %112
  %124 = load double, ptr %27, align 8
  %125 = atomicrmw fadd ptr %33, double %124 monotonic, align 8
  br label %126

126:                                              ; preds = %123, %119, %112
  br label %127

127:                                              ; preds = %126, %9
  ret void
}