; Function Attrs: norecurse nounwind uwtable
define internal void @_ZN12SparseMatrixIfE7SolveCGIfEEiRKS0_PKT_iPS4_S4_ibbi.omp_outlined.102(ptr noalias nocapture noundef readonly %0, ptr noalias nocapture readnone %1, ptr nocapture noundef nonnull readonly align 4 dereferenceable(4) %2, ptr nocapture noundef nonnull readonly align 8 dereferenceable(8) %3, ptr nocapture noundef nonnull readonly align 8 dereferenceable(8) %4, ptr nocapture noundef nonnull align 8 dereferenceable(8) %5, ptr nocapture noundef nonnull readonly align 8 dereferenceable(8) %6, ptr nocapture noundef nonnull readonly align 8 dereferenceable(8) %7, ptr nocapture noundef nonnull readonly align 4 dereferenceable(4) %8) #23 {
  %10 = alloca i32, align 4
  %11 = alloca i32, align 4
  %12 = alloca i32, align 4
  %13 = alloca i32, align 4
  %14 = alloca double, align 8
  %15 = alloca [1 x ptr], align 8
  %16 = load i32, ptr %2, align 4
  %17 = icmp sgt i32 %16, 0
  br i1 %17, label %18, label %57

18:                                               ; preds = %9
  %19 = add nsw i32 %16, -1
  store i32 0, ptr %10, align 4
  store i32 %19, ptr %11, align 4
  store i32 1, ptr %12, align 4
  store i32 0, ptr %13, align 4
  store double 0.000000e+00, ptr %14, align 8
  %20 = load i32, ptr %0, align 4
  call void @__kmpc_for_static_init_4(ptr nonnull @1, i32 %20, i32 34, ptr nonnull %13, ptr nonnull %10, ptr nonnull %11, ptr nonnull %12, i32 1, i32 1)
  %21 = load i32, ptr %11, align 4
  %22 = call i32 @llvm.smin.i32(i32 %21, i32 %19)
  store i32 %22, ptr %11, align 4
  %23 = load i32, ptr %10, align 4
  %.not24 = icmp sgt i32 %23, %22
  br i1 %.not24, label %._crit_edge, label %.lr.ph.preheader

.lr.ph.preheader:                                 ; preds = %18
  %24 = sext i32 %23 to i64
  br label %.lr.ph

.lr.ph:                                           ; preds = %.lr.ph.preheader, %.lr.ph
  %25 = phi double [ 0.000000e+00, %.lr.ph.preheader ], [ %38, %.lr.ph ]
  %indvars.iv = phi i64 [ %24, %.lr.ph.preheader ], [ %indvars.iv.next, %.lr.ph ]
  %26 = load ptr, ptr %4, align 8
  %27 = getelementptr inbounds float, ptr %26, i64 %indvars.iv
  %28 = load float, ptr %27, align 4
  %29 = load ptr, ptr %3, align 8
  %30 = getelementptr inbounds float, ptr %29, i64 %indvars.iv
  %31 = load float, ptr %30, align 4
  %32 = fsub float %28, %31
  store float %32, ptr %30, align 4
  %33 = load ptr, ptr %3, align 8
  %34 = getelementptr inbounds float, ptr %33, i64 %indvars.iv
  %35 = load float, ptr %34, align 4
  %36 = fmul float %35, %35
  %37 = fpext float %36 to double
  %38 = fadd double %25, %37
  store double %38, ptr %14, align 8
  %39 = load ptr, ptr %7, align 8
  %40 = getelementptr inbounds float, ptr %39, i64 %indvars.iv
  %41 = load float, ptr %40, align 4
  %42 = load float, ptr %8, align 4
  %43 = load ptr, ptr %6, align 8
  %44 = getelementptr inbounds float, ptr %43, i64 %indvars.iv
  %45 = load float, ptr %44, align 4
  %46 = call float @llvm.fmuladd.f32(float %41, float %42, float %45)
  store float %46, ptr %44, align 4
  %indvars.iv.next = add nsw i64 %indvars.iv, 1
  %47 = load i32, ptr %11, align 4
  %48 = sext i32 %47 to i64
  %.not.not = icmp slt i64 %indvars.iv, %48
  br i1 %.not.not, label %.lr.ph, label %._crit_edge

._crit_edge:                                      ; preds = %.lr.ph, %18
  call void @__kmpc_for_static_fini(ptr nonnull @1, i32 %20)
  store ptr %14, ptr %15, align 8
  %49 = call i32 @__kmpc_reduce_nowait(ptr nonnull @3, i32 %20, i32 1, i64 8, ptr nonnull %15, ptr nonnull @_ZN12SparseMatrixIfE7SolveCGIfEEiRKS0_PKT_iPS4_S4_ibbi.omp_outlined.102.omp.reduction.reduction_func, ptr nonnull @.gomp_critical_user_.reduction.var)
  switch i32 %49, label %57 [
    i32 1, label %50
    i32 2, label %54
  ]

50:                                               ; preds = %._crit_edge
  %51 = load double, ptr %5, align 8
  %52 = load double, ptr %14, align 8
  %53 = fadd double %51, %52
  store double %53, ptr %5, align 8
  call void @__kmpc_end_reduce_nowait(ptr nonnull @3, i32 %20, ptr nonnull @.gomp_critical_user_.reduction.var)
  br label %57

54:                                               ; preds = %._crit_edge
  %55 = load double, ptr %14, align 8
  %56 = atomicrmw fadd ptr %5, double %55 monotonic, align 8
  br label %57

57:                                               ; preds = %._crit_edge, %50, %54, %9
  ret void
}